(dp0
S'show_imports'
p1
I0
sS'private_css'
p2
S'default'
p3
sS'prj_name'
p4
S''
p5
sS'docformat'
p6
S'epytext'
p7
sS'inheritance'
p8
S'grouped'
p9
sS'help'
p10
NsS'modules'
p11
(S'/home/jortel/svn/suds/trunk/suds/__init__.py'
p12
S'/home/jortel/svn/suds/trunk/suds/bindings/binding.py'
p13
S'/home/jortel/svn/suds/trunk/suds/bindings/document.py'
p14
S'/home/jortel/svn/suds/trunk/suds/bindings/marshaller.py'
p15
S'/home/jortel/svn/suds/trunk/suds/bindings/rpc.py'
p16
S'/home/jortel/svn/suds/trunk/suds/bindings/unmarshaller.py'
p17
S'/home/jortel/svn/suds/trunk/suds/builder.py'
p18
S'/home/jortel/svn/suds/trunk/suds/proxy.py'
p19
S'/home/jortel/svn/suds/trunk/suds/resolver.py'
p20
S'/home/jortel/svn/suds/trunk/suds/sax.py'
p21
S'/home/jortel/svn/suds/trunk/suds/schema.py'
p22
S'/home/jortel/svn/suds/trunk/suds/serviceproxy.py'
p23
S'/home/jortel/svn/suds/trunk/suds/sudsobject.py'
p24
S'/home/jortel/svn/suds/trunk/suds/wsdl.py'
p25
S'/home/jortel/svn/suds/trunk/suds/client.py'
p26
tp27
sS'private'
p28
I1
sS'prj_url'
p29
NsS'frames'
p30
I1
sS'css'
p31
S'default'
p32
sS'outdir'
p33
S'/home/jortel/svn/suds/trunk/doc'
p34
s.